     78a:	dec    edi
     877:	or     al,BYTE PTR [ecx]
     8ee:	dec    esi
    1056:	add    BYTE PTR [eax],al
    1562:	add    BYTE PTR [eax],al
    1561:	push   es; 	add    BYTE PTR [eax],al
    16d2:	add    BYTE PTR [eax],al
    16d1:	pop    es; 	add    BYTE PTR [eax],al
    1a36:	pop    es
    1a35:	jns    0x1a3e
    1a34:	push   eax; 	jns    0x1a3e
    1aa6:	pop    edx
    1aaa:	pop    edx
    1aae:	pop    edx
    1ab2:	pop    edx
    1ab6:	pop    edx
    1bf6:	je     0x1c20
    1bf5:	push   ebp; 	je     0x1c20
    1fcb:	sbb    BYTE PTR [edx-0x1a],dl
    204b:	xchg   ebp,eax
    21f0:	adc    DWORD PTR [si],eax
    21ef:	in     al,dx; 	adc    DWORD PTR [si],eax
    227f:	adc    dh,dl
    22b3:	stos   BYTE PTR es:[edi],al
    22b1:	add    al,0xaa
    22b0:	stos   BYTE PTR es:[edi],al; 	add    al,0xaa
    24fb:	mov    ah,0xc6
    24f9:	arpl   cx,bx; 	mov    ah,0xc6
    25e7:	icebp  
    2bd7:	adc    al,0xe7
    2bd6:	cmp    dl,BYTE PTR [edi+eiz*8]
    2bd5:	sar    BYTE PTR [edx],cl; 	adc    al,0xe7
    2c24:	xabort 0xf3
    2c23:	ret    ; 	xabort 0xf3
    3781:	xchg   ebp,eax
    3960:	inc    ebx
    3980:	pop    esp
    397f:	push   cs; 	pop    esp
    397e:	cmp    DWORD PTR [esi],ecx; 	pop    esp
    397d:	and    DWORD PTR [ecx],edi; 	push   cs; 	pop    esp
    3c2d:	push   ds
    3c2c:	mov    dl,0x1e
    3c2b:	js     0x3bdf; 	push   ds
    3c2a:	in     eax,0x78; 	mov    dl,0x1e
    3c89:	cwde   
    3c87:	adc    bh,BYTE PTR [eax]; 	cwde   
    3d3e:	xchg   ebp,eax
    3d3c:	mov    cl,0x22; 	xchg   ebp,eax
    554b:	add    al,al
    5549:	sbb    DWORD PTR [eax],eax; 	add    al,al
    6cdb:	add    BYTE PTR [eax],ah
    6f7b:	add    BYTE PTR [eax],dh
    6f79:	adc    al,BYTE PTR [eax]; 	add    BYTE PTR [eax],dh
    79ec:	pusha  
    79ea:	add    BYTE PTR [eax],al; 	pusha  
    a22c:	nop
    a22a:	add    BYTE PTR [eax],al; 	nop
    addb:	add    al,dl
    add9:	xor    al,0x0; 	add    al,dl
    b99b:	add    al,ah
    bb3b:	add    al,dl
    bc7b:	add    BYTE PTR [eax],al
    c01b:	add    al,dl
    c019:	adc    al,0x0; 	add    al,dl
    c4cc:	nop
    c4ca:	add    BYTE PTR [eax],al; 	nop
    c76c:	pusha  
    c76a:	add    BYTE PTR [eax],al; 	pusha  
    c769:	push   eax; 	add    BYTE PTR [eax],al; 	pusha  
   1474e:	add    BYTE PTR [eax],al
   1474c:	sbb    al,0x0; 	add    BYTE PTR [eax],al
   177db:	pop    edi
   177da:	pop    esi; 	pop    edi
   177d9:	pop    ebx; 	pop    esi; 	pop    edi
   177d8:	add    BYTE PTR [ebx+0x5e],bl; 	pop    edi
   17828:	pop    esi
   17827:	pop    ebx; 	pop    esi
   17826:	rcr    BYTE PTR [ebx+0x5e],1
   17825:	mov    eax,edx; 	pop    ebx; 	pop    esi
   17868:	retf   0x83ff
   17875:	pop    edi
   17874:	pop    esi; 	pop    edi
   17873:	pop    ebx; 	pop    esi; 	pop    edi
   17872:	rcr    BYTE PTR [ebx+0x5e],1; 	pop    edi
   179a7:	pop    ebp
   179a6:	pop    edi; 	pop    ebp
   179a5:	pop    esi; 	pop    edi; 	pop    ebp
   179a4:	pop    ebx; 	pop    esi; 	pop    edi; 	pop    ebp
   17a2c:	pop    ebp
   17a2b:	pop    edi; 	pop    ebp
   17a2a:	pop    esi; 	pop    edi; 	pop    ebp
   17a29:	pop    ebx; 	pop    esi; 	pop    edi; 	pop    ebp
   18032:	je     0x18035
   18030:	test   edx,edx; 	je     0x18035
   18086:	pop    esi
   18084:	add    BYTE PTR [eax],al; 	pop    esi
   180c3:	pop    ebp
   180c2:	pop    edi; 	pop    ebp
   180c1:	pop    esi; 	pop    edi; 	pop    ebp
   180c0:	pop    ebx; 	pop    esi; 	pop    edi; 	pop    ebp
   181cc:	pop    ebp
   181cb:	pop    edi; 	pop    ebp
   181ca:	pop    esi; 	pop    edi; 	pop    ebp
   181c9:	pop    ebx; 	pop    esi; 	pop    edi; 	pop    ebp
   1837b:	add    bl,dh
   18395:	pop    ebx
   18393:	add    BYTE PTR [eax],al; 	pop    ebx
   1839f:	add    bl,dh
   1839d:	add    BYTE PTR [eax],al; 	add    bl,dh
   184d3:	pop    ebp
   184d2:	pop    edi; 	pop    ebp
   184d1:	pop    esi; 	pop    edi; 	pop    ebp
   184d0:	pop    ebx; 	pop    esi; 	pop    edi; 	pop    ebp
   18780:	add    esp,0x1c
   1881c:	pop    ebp
   1881b:	pop    edi; 	pop    ebp
   1881a:	pop    esi; 	pop    edi; 	pop    ebp
   18819:	pop    ebx; 	pop    esi; 	pop    edi; 	pop    ebp
   18966:	pop    edi
   18965:	pop    esi; 	pop    edi
   18964:	pop    ebx; 	pop    esi; 	pop    edi
   18963:	and    BYTE PTR [ebx+0x5e],bl; 	pop    edi
   1897a:	add    bl,ch
   18995:	add    BYTE PTR [eax],al
   18993:	add    BYTE PTR [eax],al; 	add    BYTE PTR [eax],al
   189c7:	pop    ebx
   189c5:	les    ebx,FWORD PTR [eax]; 	pop    ebx
   189c4:	add    esp,0x18; 	pop    ebx
   189f7:	pop    ebx
   189f5:	les    ebx,FWORD PTR [eax]; 	pop    ebx
   189f4:	add    esp,0x18; 	pop    ebx
   18a1f:	pop    ebx
   18a1d:	les    ebx,FWORD PTR [eax]; 	pop    ebx
   18a1c:	add    esp,0x18; 	pop    ebx
   18a4b:	pop    ebx
   18a49:	les    ebx,FWORD PTR [eax]; 	pop    ebx
   18a48:	add    esp,0x18; 	pop    ebx
   18a73:	pop    ebx
   18a71:	les    ebx,FWORD PTR [eax]; 	pop    ebx
   18a70:	add    esp,0x18; 	pop    ebx
   18a9f:	pop    ebx
   18a9d:	les    ebx,FWORD PTR [eax]; 	pop    ebx
   18a9c:	add    esp,0x18; 	pop    ebx
   18b0a:	pop    ebp
   18b09:	pop    edi; 	pop    ebp
   18b08:	pop    esi; 	pop    edi; 	pop    ebp
   18b07:	cli    ; 	pop    esi; 	pop    edi; 	pop    ebp
   18b37:	pop    ebp
   18b36:	pop    edi; 	pop    ebp
   18b35:	pop    esi; 	pop    edi; 	pop    ebp
   18b34:	pop    ebx; 	pop    esi; 	pop    edi; 	pop    ebp
   18b7f:	pop    ebp
   18b7e:	pop    edi; 	pop    ebp
   18b7d:	pop    esi; 	pop    edi; 	pop    ebp
   18b7c:	pop    ebx; 	pop    esi; 	pop    edi; 	pop    ebp
   18c67:	pop    ebp
   18c66:	pop    edi; 	pop    ebp
   18c65:	pop    esi; 	pop    edi; 	pop    ebp
   18c64:	cli    ; 	pop    esi; 	pop    edi; 	pop    ebp
   18ced:	pop    ebx
   18ceb:	neg    edx; 	pop    ebx
   18d11:	pop    ebx
   18d0f:	neg    edx; 	pop    ebx
   18d8a:	pop    ebp
   18d89:	pop    edi; 	pop    ebp
   18d88:	pop    esi; 	pop    edi; 	pop    ebp
   18d87:	pop    ebx; 	pop    esi; 	pop    edi; 	pop    ebp
   18dd7:	pop    ebp
   18dd6:	pop    edi; 	pop    ebp
   18dd5:	pop    esi; 	pop    edi; 	pop    ebp
   18dd4:	pop    ebx; 	pop    esi; 	pop    edi; 	pop    ebp
   18e35:	add    esp,0x24
   18ea7:	xchg   esp,eax
   18eaf:	xchg   esp,eax
   18ead:	fisttp WORD PTR [edi]; 	xchg   esp,eax
   18eff:	pop    ebp
   18efe:	pop    edi; 	pop    ebp
   18efd:	pop    esi; 	pop    edi; 	pop    ebp
   18efc:	pop    ebx; 	pop    esi; 	pop    edi; 	pop    ebp
   1908c:	pop    ebp
   1908b:	pop    edi; 	pop    ebp
   1908a:	pop    esi; 	pop    edi; 	pop    ebp
   19089:	pop    ebx; 	pop    esi; 	pop    edi; 	pop    ebp
   190bb:	pop    ebp
   190ba:	pop    edi; 	pop    ebp
   190b9:	pop    esi; 	pop    edi; 	pop    ebp
   190b8:	pop    ebx; 	pop    esi; 	pop    edi; 	pop    ebp
   1928f:	pop    ebp
   1928e:	pop    edi; 	pop    ebp
   1928d:	pop    esi; 	pop    edi; 	pop    ebp
   1928c:	pop    ebx; 	pop    esi; 	pop    edi; 	pop    ebp
   192a2:	pop    ebp
   192a1:	pop    edi; 	pop    ebp
   192a0:	pop    esi; 	pop    edi; 	pop    ebp
   1929f:	pop    ebx; 	pop    esi; 	pop    edi; 	pop    ebp
   192c7:	pop    ebp
   192c6:	pop    edi; 	pop    ebp
   192c5:	pop    esi; 	pop    edi; 	pop    ebp
   192c4:	pop    ebx; 	pop    esi; 	pop    edi; 	pop    ebp
   192ef:	pop    ebp
   192ee:	pop    edi; 	pop    ebp
   192ed:	pop    esi; 	pop    edi; 	pop    ebp
   192ec:	pop    ebx; 	pop    esi; 	pop    edi; 	pop    ebp
   19317:	pop    ebp
   19316:	pop    edi; 	pop    ebp
   19315:	pop    esi; 	pop    edi; 	pop    ebp
   19314:	pop    ebx; 	pop    esi; 	pop    edi; 	pop    ebp
   193aa:	pop    ebx
   193a8:	les    ecx,FWORD PTR [eax]; 	pop    ebx
   193a7:	add    esp,0x8; 	pop    ebx
   19a4f:	add    al,0x83
   19b3c:	pop    ebp
   19b3b:	pop    edi; 	pop    ebp
   19b3a:	pop    esi; 	pop    edi; 	pop    ebp
   19b39:	pop    ebx; 	pop    esi; 	pop    edi; 	pop    ebp
   19b63:	pop    ebx
   19b61:	les    ebx,FWORD PTR [eax]; 	pop    ebx
   19b60:	add    esp,0x18; 	pop    ebx
   19bac:	pop    edi
   19bab:	pop    esi; 	pop    edi
   19baa:	pop    ebx; 	pop    esi; 	pop    edi
   19ba9:	adc    BYTE PTR [ebx+0x5e],bl; 	pop    edi
   19bbe:	add    BYTE PTR [eax],al
   19bbd:	add    BYTE PTR ss:[eax],al
   19bbc:	add    al,0x36; 	add    BYTE PTR [eax],al
   19bde:	add    BYTE PTR [eax],al
   19c44:	pop    edi
   19c43:	pop    esi; 	pop    edi
   19c42:	pop    ebx; 	pop    esi; 	pop    edi
   19c41:	add    BYTE PTR [ebx+0x5e],bl; 	pop    edi
   1a71e:	add    cl,ch
   1a71c:	add    BYTE PTR [eax],al; 	add    cl,ch
   1a78d:	pop    ebp
   1a78c:	pop    edi; 	pop    ebp
   1a78b:	pop    esi; 	pop    edi; 	pop    ebp
   1a78a:	pop    ebx; 	pop    esi; 	pop    edi; 	pop    ebp
   1a80e:	pop    ebp
   1a80d:	pop    edi; 	pop    ebp
   1a80c:	pop    esi; 	pop    edi; 	pop    ebp
   1a80b:	pop    ebx; 	pop    esi; 	pop    edi; 	pop    ebp
   1abd1:	pop    ebp
   1abd0:	pop    edi; 	pop    ebp
   1abcf:	pop    esi; 	pop    edi; 	pop    ebp
   1abce:	pop    ebx; 	pop    esi; 	pop    edi; 	pop    ebp
   1ac3e:	pop    ebp
   1ac3d:	pop    edi; 	pop    ebp
   1ac3c:	pop    esi; 	pop    edi; 	pop    ebp
   1ac3b:	pop    ebx; 	pop    esi; 	pop    edi; 	pop    ebp
   1acdd:	pop    ebp
   1acdc:	pop    edi; 	pop    ebp
   1acdb:	pop    esi; 	pop    edi; 	pop    ebp
   1acda:	pop    ebx; 	pop    esi; 	pop    edi; 	pop    ebp
   1adbb:	mov    BYTE PTR [ecx],0x83
   1ae0f:	rol    DWORD PTR [ecx],0x83
   1b036:	pop    edi
   1b035:	pop    esi; 	pop    edi
   1b033:	xor    eax,eax; 	pop    esi; 	pop    edi
   1b047:	pop    edi
   1b046:	pop    esi; 	pop    edi
   1b045:	add    BYTE PTR [esi+0x5f],bl
   1b044:	add    BYTE PTR [eax],al; 	pop    esi; 	pop    edi
   1b0cd:	pop    ebp
   1b0cc:	pop    edi; 	pop    ebp
   1b0cb:	pop    esi; 	pop    edi; 	pop    ebp
   1b0ca:	pop    ebx; 	pop    esi; 	pop    edi; 	pop    ebp
   1b139:	pop    ebp
   1b138:	pop    edi; 	pop    ebp
   1b137:	pop    esi; 	pop    edi; 	pop    ebp
   1b136:	pop    ebx; 	pop    esi; 	pop    edi; 	pop    ebp
   1b704:	pop    ebp
   1b703:	pop    edi; 	pop    ebp
   1b702:	pop    esi; 	pop    edi; 	pop    ebp
   1b701:	pop    ebx; 	pop    esi; 	pop    edi; 	pop    ebp
   1b982:	pop    ebp
   1b981:	pop    edi; 	pop    ebp
   1b980:	pop    esi; 	pop    edi; 	pop    ebp
   1b97f:	pop    ebx; 	pop    esi; 	pop    edi; 	pop    ebp
   1b99e:	cmovs  eax,edx
   1ba41:	pop    ebp
   1ba40:	pop    edi; 	pop    ebp
   1ba3f:	pop    esi; 	pop    edi; 	pop    ebp
   1ba3e:	pop    ebx; 	pop    esi; 	pop    edi; 	pop    ebp
   1bbdb:	add    DWORD PTR [ecx],edi
   1bbda:	ret    0x3901
   1bbf7:	pop    ebp
   1bbf6:	pop    edi; 	pop    ebp
   1bbf5:	pop    esi; 	pop    edi; 	pop    ebp
   1bbf4:	pop    ebx; 	pop    esi; 	pop    edi; 	pop    ebp
   1bc87:	pop    ebp
   1bc86:	pop    edi; 	pop    ebp
   1bc85:	pop    esi; 	pop    edi; 	pop    ebp
   1bc84:	pop    ebx; 	pop    esi; 	pop    edi; 	pop    ebp
   1bccf:	pop    ebp
   1bcce:	pop    edi; 	pop    ebp
   1bccd:	pop    esi; 	pop    edi; 	pop    ebp
   1bccc:	pop    ebx; 	pop    esi; 	pop    edi; 	pop    ebp
   1bce0:	pop    ebp
   1bcdf:	pop    edi; 	pop    ebp
   1bcde:	pop    esi; 	pop    edi; 	pop    ebp
   1bcdd:	pop    ebx; 	pop    esi; 	pop    edi; 	pop    ebp
   1bdde:	pop    ebp
   1bddd:	pop    edi; 	pop    ebp
   1bddc:	pop    esi; 	pop    edi; 	pop    ebp
   1bddb:	pop    ebx; 	pop    esi; 	pop    edi; 	pop    ebp
   1be15:	pop    ebp
   1be14:	pop    edi; 	pop    ebp
   1be13:	pop    esi; 	pop    edi; 	pop    ebp
   1be12:	pop    ebx; 	pop    esi; 	pop    edi; 	pop    ebp
   1bf0f:	sar    BYTE PTR [ecx],1
   1bf13:	dec    esi
   1c00b:	add    DWORD PTR [ecx],edi
   1c00a:	ret    0x3901
   1c265:	pop    ebp
   1c264:	pop    edi; 	pop    ebp
   1c263:	pop    esi; 	pop    edi; 	pop    ebp
   1c262:	pop    ebx; 	pop    esi; 	pop    edi; 	pop    ebp
   1c36d:	pop    ebp
   1c36c:	pop    edi; 	pop    ebp
   1c36b:	pop    esi; 	pop    edi; 	pop    ebp
   1c36a:	pop    ebx; 	pop    esi; 	pop    edi; 	pop    ebp
   1c3ff:	pop    ebp
   1c3fe:	pop    edi; 	pop    ebp
   1c3fd:	pop    esi; 	pop    edi; 	pop    ebp
   1c3fc:	pop    ebx; 	pop    esi; 	pop    edi; 	pop    ebp
   1c44f:	pop    ebp
   1c44e:	pop    edi; 	pop    ebp
   1c44d:	pop    esi; 	pop    edi; 	pop    ebp
   1c44c:	pop    ebx; 	pop    esi; 	pop    edi; 	pop    ebp
   1c4d8:	pop    ebp
   1c4d7:	pop    edi; 	pop    ebp
   1c4d6:	pop    esi; 	pop    edi; 	pop    ebp
   1c4d5:	pop    ebx; 	pop    esi; 	pop    edi; 	pop    ebp
   1c60e:	pop    ebp
   1c60d:	pop    edi; 	pop    ebp
   1c60c:	pop    esi; 	pop    edi; 	pop    ebp
   1c60b:	pop    ebx; 	pop    esi; 	pop    edi; 	pop    ebp
   1c645:	pop    ebp
   1c644:	pop    edi; 	pop    ebp
   1c643:	pop    esi; 	pop    edi; 	pop    ebp
   1c642:	pop    ebx; 	pop    esi; 	pop    edi; 	pop    ebp
   1c767:	add    al,0x83
   1ca95:	pop    ebp
   1ca94:	pop    edi; 	pop    ebp
   1ca93:	pop    esi; 	pop    edi; 	pop    ebp
   1ca92:	pop    ebx; 	pop    esi; 	pop    edi; 	pop    ebp
   1cadd:	pop    ebp
   1cadc:	pop    edi; 	pop    ebp
   1cadb:	pop    esi; 	pop    edi; 	pop    ebp
   1cada:	pop    ebx; 	pop    esi; 	pop    edi; 	pop    ebp
   1cdab:	pop    ebp
   1cdaa:	pop    edi; 	pop    ebp
   1cda9:	pop    esi; 	pop    edi; 	pop    ebp
   1cda8:	pop    ebx; 	pop    esi; 	pop    edi; 	pop    ebp
   1cde5:	pop    ebp
   1cde4:	pop    edi; 	pop    ebp
   1cde3:	pop    esi; 	pop    edi; 	pop    ebp
   1cde2:	pop    ebx; 	pop    esi; 	pop    edi; 	pop    ebp
   1d17f:	add    edi,DWORD PTR [ecx]
   1d17e:	push   ecx; 	add    edi,DWORD PTR [ecx]
   1d575:	pop    ebp
   1d574:	pop    edi; 	pop    ebp
   1d573:	pop    esi; 	pop    edi; 	pop    ebp
   1d572:	pop    ebx; 	pop    esi; 	pop    edi; 	pop    ebp
   1d5ac:	pop    ebp
   1d5ab:	pop    edi; 	pop    ebp
   1d5aa:	pop    esi; 	pop    edi; 	pop    ebp
   1d5a9:	pop    ebx; 	pop    esi; 	pop    edi; 	pop    ebp
   1dbd0:	je     0x1db5b
   1dbce:	jl     0x1dbf4; 	je     0x1db5b
   1e030:	pop    ebp
   1e02f:	pop    edi; 	pop    ebp
   1e02e:	pop    esi; 	pop    edi; 	pop    ebp
   1e02d:	pop    ebx; 	pop    esi; 	pop    edi; 	pop    ebp
   1e06d:	pop    ebp
   1e06c:	pop    edi; 	pop    ebp
   1e06b:	pop    esi; 	pop    edi; 	pop    ebp
   1e06a:	pop    ebx; 	pop    esi; 	pop    edi; 	pop    ebp
   1e1a7:	adc    al,0x89
   1e1a6:	inc    eax; 	adc    al,0x89
   1e29b:	xor    BYTE PTR [ebp+0xa],0x89
   1e53b:	xor    BYTE PTR [ebp+0xa],0x89
   1e84c:	xor    BYTE PTR [ebp+0xb],0x83
   1ee34:	pop    ebp
   1ee33:	pop    edi; 	pop    ebp
   1ee32:	pop    esi; 	pop    edi; 	pop    ebp
   1ee31:	pop    ebx; 	pop    esi; 	pop    edi; 	pop    ebp
   1ee75:	pop    ebp
   1ee74:	pop    edi; 	pop    ebp
   1ee73:	pop    esi; 	pop    edi; 	pop    ebp
   1ee72:	pop    ebx; 	pop    esi; 	pop    edi; 	pop    ebp
   1f40a:	pop    ebp
   1f409:	pop    edi; 	pop    ebp
   1f408:	pop    esi; 	pop    edi; 	pop    ebp
   1f407:	pop    ebx; 	pop    esi; 	pop    edi; 	pop    ebp
   1f445:	pop    ebp
   1f444:	pop    edi; 	pop    ebp
   1f443:	pop    esi; 	pop    edi; 	pop    ebp
   1f442:	pop    ebx; 	pop    esi; 	pop    edi; 	pop    ebp
   1f86c:	add    edi,DWORD PTR [ecx]
   1f86b:	push   ecx; 	add    edi,DWORD PTR [ecx]
   1fc94:	pop    ebp
   1fc93:	pop    edi; 	pop    ebp
   1fc92:	pop    esi; 	pop    edi; 	pop    ebp
   1fc91:	pop    ebx; 	pop    esi; 	pop    edi; 	pop    ebp
   1fcd5:	pop    ebp
   1fcd4:	pop    edi; 	pop    ebp
   1fcd3:	pop    esi; 	pop    edi; 	pop    ebp
   1fcd2:	pop    ebx; 	pop    esi; 	pop    edi; 	pop    ebp
   2024a:	pop    ebp
   20249:	pop    edi; 	pop    ebp
   20248:	pop    esi; 	pop    edi; 	pop    ebp
   20247:	pop    ebx; 	pop    esi; 	pop    edi; 	pop    ebp
   20285:	pop    ebp
   20284:	pop    edi; 	pop    ebp
   20283:	pop    esi; 	pop    edi; 	pop    ebp
   20282:	pop    ebx; 	pop    esi; 	pop    edi; 	pop    ebp
   206ac:	add    edi,DWORD PTR [ecx]
   206ab:	push   ecx; 	add    edi,DWORD PTR [ecx]
   20c12:	pop    ebp
   20c11:	pop    edi; 	pop    ebp
   20c10:	pop    esi; 	pop    edi; 	pop    ebp
   20c0f:	pop    ebx; 	pop    esi; 	pop    edi; 	pop    ebp
   20c2d:	pop    ebp
   20c2c:	pop    edi; 	pop    ebp
   20c2b:	pop    esi; 	pop    edi; 	pop    ebp
   20c2a:	pop    ebx; 	pop    esi; 	pop    edi; 	pop    ebp
   20c76:	jle    0x20bfb
   20c74:	add    BYTE PTR [esi+edi*2-0x7d],dh
   20e1c:	pop    ebp
   20e1b:	pop    edi; 	pop    ebp
   20e1a:	pop    esi; 	pop    edi; 	pop    ebp
   20e19:	pop    ebx; 	pop    esi; 	pop    edi; 	pop    ebp
   20f54:	pop    ebp
   20f53:	pop    edi; 	pop    ebp
   20f52:	pop    esi; 	pop    edi; 	pop    ebp
   20f51:	pop    ebx; 	pop    esi; 	pop    edi; 	pop    ebp
   20f80:	pop    ebp
   20f7f:	pop    edi; 	pop    ebp
   20f7e:	pop    esi; 	pop    edi; 	pop    ebp
   20f7d:	pop    ebx; 	pop    esi; 	pop    edi; 	pop    ebp
   21066:	pop    ebp
   21065:	pop    edi; 	pop    ebp
   21064:	pop    esi; 	pop    edi; 	pop    ebp
   21063:	pop    ebx; 	pop    esi; 	pop    edi; 	pop    ebp
   2107b:	pop    ebp
   2107a:	pop    edi; 	pop    ebp
   21079:	pop    esi; 	pop    edi; 	pop    ebp
   21078:	pop    ebx; 	pop    esi; 	pop    edi; 	pop    ebp
   2108e:	add    BYTE PTR [eax],al
   2108d:	sldt   WORD PTR [eax]
   2108c:	fmul   QWORD PTR [edi]; 	add    BYTE PTR [eax],al
   211a4:	pop    ebp
   211a3:	pop    edi; 	pop    ebp
   211a2:	pop    esi; 	pop    edi; 	pop    ebp
   211a1:	pop    ebx; 	pop    esi; 	pop    edi; 	pop    ebp
   211eb:	pop    ebp
   211ea:	pop    edi; 	pop    ebp
   211e9:	pop    esi; 	pop    edi; 	pop    ebp
   211e8:	pop    ebx; 	pop    esi; 	pop    edi; 	pop    ebp
   21235:	add    BYTE PTR [ecx],al
   2128f:	pop    ebp
   2128e:	pop    edi; 	pop    ebp
   2128d:	pop    esi; 	pop    edi; 	pop    ebp
   2128c:	pop    ebx; 	pop    esi; 	pop    edi; 	pop    ebp
   21317:	pop    ebp
   21316:	pop    edi; 	pop    ebp
   21315:	pop    esi; 	pop    edi; 	pop    ebp
   21314:	pop    ebx; 	pop    esi; 	pop    edi; 	pop    ebp
   21340:	pop    ebp
   2133f:	pop    edi; 	pop    ebp
   2133e:	pop    esi; 	pop    edi; 	pop    ebp
   2133d:	pop    ebx; 	pop    esi; 	pop    edi; 	pop    ebp
   2151a:	add    BYTE PTR [ecx],bh
   217a8:	pop    ebx
   217a6:	les    ecx,FWORD PTR [eax]; 	pop    ebx
   217a5:	add    esp,0x8; 	pop    ebx
   217d3:	pop    ebx
   217d1:	les    ebx,FWORD PTR [eax]; 	pop    ebx
   217d0:	add    esp,0x18; 	pop    ebx
   217ff:	pop    ebx
   217fd:	les    ecx,FWORD PTR [eax]; 	pop    ebx
   217fc:	add    esp,0x8; 	pop    ebx
   21849:	pop    ebx
   21847:	les    ecx,FWORD PTR [eax]; 	pop    ebx
   21846:	add    esp,0x8; 	pop    ebx
   218a6:	add    esp,0x1c
   219b8:	pop    ebp
   219b7:	pop    edi; 	pop    ebp
   219b6:	pop    esi; 	pop    edi; 	pop    ebp
   219b5:	pop    ebx; 	pop    esi; 	pop    edi; 	pop    ebp
   219df:	pop    ebp
   219de:	pop    edi; 	pop    ebp
   219dd:	pop    esi; 	pop    edi; 	pop    ebp
   219dc:	pop    ebx; 	pop    esi; 	pop    edi; 	pop    ebp
   21a78:	pop    ebp
   21a77:	pop    edi; 	pop    ebp
   21a76:	pop    esi; 	pop    edi; 	pop    ebp
   21a75:	lock pop esi; 	pop    edi; 	pop    ebp
   21bb8:	pop    ebp
   21bb7:	pop    edi; 	pop    ebp
   21bb6:	pop    esi; 	pop    edi; 	pop    ebp
   21bb5:	pop    ebx; 	pop    esi; 	pop    edi; 	pop    ebp
   21c6f:	pop    ebp
   21c6e:	pop    edi; 	pop    ebp
   21c6d:	clc    ; 	pop    edi; 	pop    ebp
   21c6c:	mov    eax,edi; 	pop    edi; 	pop    ebp
   21ca3:	pop    ebp
   21ca2:	pop    edi; 	pop    ebp
   21ca1:	pop    esi; 	pop    edi; 	pop    ebp
   21ca0:	pop    ebx; 	pop    esi; 	pop    edi; 	pop    ebp
   21d44:	pop    ebp
   21d43:	pop    edi; 	pop    ebp
   21d42:	pop    esi; 	pop    edi; 	pop    ebp
   21d41:	pop    ebx; 	pop    esi; 	pop    edi; 	pop    ebp
   21f2f:	pop    ebp
   21f2e:	pop    edi; 	pop    ebp
   21f2c:	mov    eax,ebp; 	pop    edi; 	pop    ebp
   21f91:	pop    ebp
   21f90:	pop    edi; 	pop    ebp
   21f8f:	pop    esi; 	pop    edi; 	pop    ebp
   21f8e:	pop    ebx; 	pop    esi; 	pop    edi; 	pop    ebp
   222bf:	add    cl,ch
   222bd:	add    BYTE PTR [eax],al; 	add    cl,ch
   224b7:	xchg   esp,eax
   224bf:	xchg   esp,eax
   224bd:	fisttp WORD PTR [edi]; 	xchg   esp,eax
   2250f:	pop    ebp
   2250e:	pop    edi; 	pop    ebp
   2250d:	pop    esi; 	pop    edi; 	pop    ebp
   2250c:	pop    ebx; 	pop    esi; 	pop    edi; 	pop    ebp
   22b70:	pop    ebx
   22b6e:	add    BYTE PTR [eax],al; 	pop    ebx
   22c8c:	pop    ebp
   22c8b:	pop    edi; 	pop    ebp
   22c8a:	pop    esi; 	pop    edi; 	pop    ebp
   22c89:	pop    ebx; 	pop    esi; 	pop    edi; 	pop    ebp
   22f23:	pop    ebp
   22f22:	pop    edi; 	pop    ebp
   22f21:	pop    esi; 	pop    edi; 	pop    ebp
   22f20:	pop    ebx; 	pop    esi; 	pop    edi; 	pop    ebp
   22f7b:	pop    ebp
   22f7a:	pop    edi; 	pop    ebp
   22f79:	pop    esi; 	pop    edi; 	pop    ebp
   22f78:	pop    ebx; 	pop    esi; 	pop    edi; 	pop    ebp
   231b6:	pop    esi
   231b5:	pop    ebx; 	pop    esi
   231b4:	adc    al,0x5b; 	pop    esi
   231b3:	les    edx,FWORD PTR [ebx+ebx*2]; 	pop    esi
   2320a:	sub    eax,DWORD PTR [edx]
   23208:	mov    eax,DWORD PTR [eax]; 	sub    eax,DWORD PTR [edx]
   232b7:	pop    ebp
   232b6:	pop    edi; 	pop    ebp
   232b5:	pop    esi; 	pop    edi; 	pop    ebp
   232b4:	pop    ebx; 	pop    esi; 	pop    edi; 	pop    ebp
   23451:	ret    0x8301
   23634:	pop    ebp
   23633:	pop    edi; 	pop    ebp
   23632:	pop    esi; 	pop    edi; 	pop    ebp
   23631:	pop    ebx; 	pop    esi; 	pop    edi; 	pop    ebp
   23bd0:	jmp    FWORD PTR [ecx]
   23faf:	add    BYTE PTR [eax],al
   23fe6:	add    esp,0x1c
   24030:	pop    ebx
   2402f:	and    al,0x5b
   2402e:	xchg   ecx,eax; 	and    al,0x5b
   2402d:	inc    esp; 	xchg   ecx,eax; 	and    al,0x5b
   2403e:	pop    ebx
   24044:	pop    ebx
   24043:	inc    eax; 	pop    ebx
   24042:	mov    BYTE PTR [eax+0x5b],al
   24041:	inc    esp; 	mov    BYTE PTR [eax+0x5b],al
   2406e:	pop    eax
   2406d:	inc    eax; 	pop    eax
   2406c:	mov    eax,DWORD PTR [eax+0x58]
   24163:	pop    ebp
   24162:	pop    edi; 	pop    ebp
   24161:	pop    esi; 	pop    edi; 	pop    ebp
   24160:	pop    ebx; 	pop    esi; 	pop    edi; 	pop    ebp
   241a2:	pop    ebp
   241a1:	pop    edi; 	pop    ebp
   241a0:	pop    esi; 	pop    edi; 	pop    ebp
   2419f:	pop    ebx; 	pop    esi; 	pop    edi; 	pop    ebp
   24474:	pop    ebp
   24473:	pop    edi; 	pop    ebp
   24472:	pop    esi; 	pop    edi; 	pop    ebp
   24471:	pop    ebx; 	pop    esi; 	pop    edi; 	pop    ebp
   24874:	pop    ebp
   24873:	pop    edi; 	pop    ebp
   24872:	pop    esi; 	pop    edi; 	pop    ebp
   24871:	pop    ebx; 	pop    esi; 	pop    edi; 	pop    ebp
   248a9:	pop    ebp
   248a8:	pop    edi; 	pop    ebp
   248a7:	pop    esi; 	pop    edi; 	pop    ebp
   248a6:	pop    ebx; 	pop    esi; 	pop    edi; 	pop    ebp
   248e4:	pop    ebp
   248e3:	pop    edi; 	pop    ebp
   248e2:	pop    esi; 	pop    edi; 	pop    ebp
   248e1:	pop    ebx; 	pop    esi; 	pop    edi; 	pop    ebp
   24965:	pop    ebp
   24964:	pop    edi; 	pop    ebp
   24963:	pop    esi; 	pop    edi; 	pop    ebp
   24962:	pop    ebx; 	pop    esi; 	pop    edi; 	pop    ebp
   24a26:	pop    ebp
   24a25:	pop    edi; 	pop    ebp
   24a24:	pop    esi; 	pop    edi; 	pop    ebp
   24a23:	ret    0x5f5e; 	pop    ebp
   24af4:	pop    ebp
   24af3:	pop    edi; 	pop    ebp
   24af2:	pop    esi; 	pop    edi; 	pop    ebp
   24af1:	pop    ebx; 	pop    esi; 	pop    edi; 	pop    ebp
   24b41:	inc    eax
   24b40:	nop; 	inc    eax
   24b3f:	inc    esp; 	nop; 	inc    eax
   24b3e:	mov    eax,DWORD PTR [eax+edx*4+0x40]
   24b8b:	pop    edi
   24b8a:	pop    esi; 	pop    edi
   24b89:	pop    ebx; 	pop    esi; 	pop    edi
   24b88:	or     BYTE PTR [ebx+0x5e],bl; 	pop    edi
   24b94:	pop    edi
   24b93:	pop    esi; 	pop    edi
   24b91:	xor    eax,eax; 	pop    esi; 	pop    edi
   24bb7:	pop    edi
   24bb6:	pop    esi; 	pop    edi
   24bb5:	pop    ebx; 	pop    esi; 	pop    edi
   24bb4:	call   FWORD PTR [ebx+0x5e]; 	pop    edi
   24e36:	mov    bh,0xc0
   24e35:	movzx  eax,ax
   24e34:	or     BYTE PTR [edi],cl; 	mov    bh,0xc0
   24e67:	mov    bh,0xc0
   24e66:	movzx  eax,ax
   24e65:	add    al,0xf; 	mov    bh,0xc0
   24e96:	mov    bh,0xc0
   24e95:	movzx  eax,ax
   24e94:	add    cl,BYTE PTR [edi]; 	mov    bh,0xc0
   24ec7:	mov    bh,0xc0
   24ec6:	movzx  eax,ax
   24ec5:	or     BYTE PTR [edi],cl; 	mov    bh,0xc0
   24ef7:	mov    bh,0xc0
   24ef6:	movzx  eax,ax
   24ef5:	add    cl,BYTE PTR [edi]; 	mov    bh,0xc0
   24f27:	mov    bh,0xc0
   24f26:	movzx  eax,ax
   24f57:	mov    bh,0xc0
   24f56:	movzx  eax,ax
   24f55:	inc    eax; 	movzx  eax,ax
   24f86:	mov    bh,0xc0
   24f85:	movzx  eax,ax
   24f84:	add    al,0xf; 	mov    bh,0xc0
   24fb7:	mov    bh,0xc0
   24fb6:	movzx  eax,ax
   24fb5:	and    BYTE PTR [edi],cl; 	mov    bh,0xc0
   24fe7:	mov    bh,0xc0
   24fe6:	movzx  eax,ax
   24fe5:	add    DWORD PTR [edi],ecx; 	mov    bh,0xc0
   25017:	mov    bh,0xc0
   25016:	movzx  eax,ax
   25015:	adc    BYTE PTR [edi],cl; 	mov    bh,0xc0
   250c3:	loopne 0x250c6
   250c2:	and    eax,0x1
   250c1:	push   eax; 	and    eax,0x1
   250f8:	add    BYTE PTR [eax],al
   250f6:	add    BYTE PTR [edx],al; 	add    BYTE PTR [eax],al
   25128:	add    BYTE PTR [eax],al
   25126:	add    BYTE PTR [edx],al; 	add    BYTE PTR [eax],al
   25135:	loopne 0x251b6
   25134:	and    eax,0x7f
   25133:	add    al,0x83; 	loopne 0x251b6
   2514a:	sete   al
   25160:	loopne 0x25163
   2515f:	and    eax,0x1
   2515e:	push   eax; 	and    eax,0x1
   25183:	mov    bh,0xc0
   25182:	movzx  eax,ax
   25181:	or     BYTE PTR [edi],cl; 	mov    bh,0xc0
   251a4:	mov    bh,0xc0
   251a3:	movzx  eax,ax
   251a2:	add    al,0xf; 	mov    bh,0xc0
   251c3:	mov    bh,0xc0
   251c2:	movzx  eax,ax
   251c1:	add    cl,BYTE PTR [edi]; 	mov    bh,0xc0
   251e4:	mov    bh,0xc0
   251e3:	movzx  eax,ax
   251e2:	or     BYTE PTR [edi],cl; 	mov    bh,0xc0
   25204:	mov    bh,0xc0
   25203:	movzx  eax,ax
   25202:	add    cl,BYTE PTR [edi]; 	mov    bh,0xc0
   25224:	mov    bh,0xc0
   25223:	movzx  eax,ax
   25244:	mov    bh,0xc0
   25243:	movzx  eax,ax
   25242:	inc    eax; 	movzx  eax,ax
   25263:	mov    bh,0xc0
   25262:	movzx  eax,ax
   25261:	add    al,0xf; 	mov    bh,0xc0
   25284:	mov    bh,0xc0
   25283:	movzx  eax,ax
   25282:	and    BYTE PTR [edi],cl; 	mov    bh,0xc0
   252a4:	mov    bh,0xc0
   252a3:	movzx  eax,ax
   252a2:	add    DWORD PTR [edi],ecx; 	mov    bh,0xc0
   252c4:	mov    bh,0xc0
   252c3:	movzx  eax,ax
   252c2:	adc    BYTE PTR [edi],cl; 	mov    bh,0xc0
   252dd:	nop
   252dc:	add    al,0x90
   252db:	mov    eax,DWORD PTR [eax+edx*4]
   252ed:	nop
   252ec:	add    al,0x90
   252eb:	mov    eax,DWORD PTR [eax+edx*4]
   252ea:	cmp    al,0x8b; 	add    al,0x90
   2531d:	and    al,0x8
   2531c:	inc    esp; 	and    al,0x8
   2531b:	and    eax,DWORD PTR [esp+0x8]
   25335:	add    BYTE PTR [eax],al
   25333:	add    BYTE PTR [eax],al; 	add    BYTE PTR [eax],al
   25355:	add    BYTE PTR [eax],al
   25353:	add    BYTE PTR [eax],al; 	add    BYTE PTR [eax],al
   25375:	add    BYTE PTR [eax],al
   25373:	add    BYTE PTR [eax],al; 	add    BYTE PTR [eax],al
   253a8:	and    al,0x81
   253a7:	pop    ecx; 	and    al,0x81
   253d7:	pop    esi
   253d6:	pop    ebx; 	pop    esi
   253d5:	sbb    BYTE PTR [ebx+0x5e],bl
   253d4:	adc    al,0x18; 	pop    ebx; 	pop    esi
   256b2:	pop    ebp
   256b1:	pop    edi; 	pop    ebp
   256b0:	pop    esi; 	pop    edi; 	pop    ebp
   256af:	pop    ebx; 	pop    esi; 	pop    edi; 	pop    ebp
   25857:	pop    ebx
   25855:	les    ecx,FWORD PTR [eax]; 	pop    ebx
   25854:	add    esp,0x8; 	pop    ebx
   25887:	pop    ebx
   25885:	les    ecx,FWORD PTR [eax]; 	pop    ebx
   25884:	add    esp,0x8; 	pop    ebx
   258b9:	pop    ebx
   258b7:	les    ebp,FWORD PTR [eax]; 	pop    ebx
   258b6:	add    esp,0x28; 	pop    ebx
   258d2:	add    esp,0x1c
   258f0:	add    esp,0x1c
   25966:	pop    ebp
   25965:	pop    edi; 	pop    ebp
   25964:	pop    esi; 	pop    edi; 	pop    ebp
   25963:	pop    ebx; 	pop    esi; 	pop    edi; 	pop    ebp
   259ca:	pop    ebp
   259c9:	pop    edi; 	pop    ebp
   259c8:	pop    esi; 	pop    edi; 	pop    ebp
   259c7:	enter  0x5f5e,0x5d
   259f1:	or     al,0x89
   25b4b:	pop    edi
   25b4a:	pop    esi; 	pop    edi
   25b49:	pop    ebx; 	pop    esi; 	pop    edi
   25b48:	add    al,0x5b; 	pop    esi; 	pop    edi
   25c55:	inc    edx
   2603e:	mov    ah,0x89
   2603d:	inc    ebp; 	mov    ah,0x89
   26123:	ret    0x8301
   26a82:	pop    ebp
   26a81:	pop    edi; 	pop    ebp
   26a80:	pop    esi; 	pop    edi; 	pop    ebp
   26a7f:	pop    ebx; 	pop    esi; 	pop    edi; 	pop    ebp
   26ab8:	pop    ebp
   26ab7:	pop    edi; 	pop    ebp
   26ab6:	pop    esi; 	pop    edi; 	pop    ebp
   26ab5:	lock pop esi; 	pop    edi; 	pop    ebp
   26c75:	pop    ebp
   26c74:	pop    edi; 	pop    ebp
   26c73:	pop    esi; 	pop    edi; 	pop    ebp
   26c72:	pop    ebx; 	pop    esi; 	pop    edi; 	pop    ebp
   26fed:	pop    ebx
   26feb:	les    ebp,FWORD PTR [eax]; 	pop    ebx
   26fea:	add    esp,0x28; 	pop    ebx
   27019:	pop    ebx
   27017:	les    ebp,FWORD PTR [eax]; 	pop    ebx
   27016:	add    esp,0x28; 	pop    ebx
   27047:	pop    ebx
   27045:	les    ebp,FWORD PTR [eax]; 	pop    ebx
   27044:	add    esp,0x28; 	pop    ebx
   2736f:	add    BYTE PTR [ebx-0x77],dl
   2747e:	pop    ebp
   2747d:	pop    edi; 	pop    ebp
   2747c:	pop    esi; 	pop    edi; 	pop    ebp
   2747b:	pop    ebx; 	pop    esi; 	pop    edi; 	pop    ebp
   27c8a:	xchg   ebp,eax
   27c88:	dec    DWORD PTR [edi]; 	xchg   ebp,eax
   27e43:	xchg   ebp,eax
   27e41:	dec    DWORD PTR [edi]; 	xchg   ebp,eax
   28393:	icebp  
   28392:	xchg   cl,dh
   2839e:	icebp  
   2839d:	xchg   cl,dh
   283a9:	icebp  
   283a8:	xchg   cl,dh
   28570:	icebp  
   2856f:	xchg   cl,dh
   2857b:	icebp  
   2857a:	xchg   cl,dh
   285c4:	icebp  
   285c3:	xchg   cl,dh
   286c0:	icebp  
   286bf:	xchg   cl,dh
   287ab:	icebp  
   287aa:	xchg   cl,dh
   287b6:	icebp  
   287b5:	xchg   cl,dh
   28819:	icebp  
   28818:	xchg   cl,dh
   288a5:	add    esp,0x1c
   2898c:	nop
   28989:	or     dl,BYTE PTR [esi-0x18]; 	nop
   28be8:	pop    ebp
   28be7:	pop    edi; 	pop    ebp
   28be6:	pop    esi; 	pop    edi; 	pop    ebp
   28be5:	pop    ebx; 	pop    esi; 	pop    edi; 	pop    ebp
   28dcd:	pop    ebp
   28dcc:	pop    edi; 	pop    ebp
   28dcb:	pop    esi; 	pop    edi; 	pop    ebp
   28dca:	pop    ebx; 	pop    esi; 	pop    edi; 	pop    ebp
   28f1e:	pop    ebp
   28f1d:	pop    edi; 	pop    ebp
   28f1c:	pop    esi; 	pop    edi; 	pop    ebp
   28f1b:	pop    ebx; 	pop    esi; 	pop    edi; 	pop    ebp
   29003:	pop    ebp
   29002:	pop    edi; 	pop    ebp
   29001:	pop    esi; 	pop    edi; 	pop    ebp
   29000:	pop    ebx; 	pop    esi; 	pop    edi; 	pop    ebp
   2909e:	pop    ebp
   2909d:	pop    edi; 	pop    ebp
   2909c:	pop    esi; 	pop    edi; 	pop    ebp
   2909b:	lock pop esi; 	pop    edi; 	pop    ebp
   294bb:	pop    ebp
   294ba:	pop    edi; 	pop    ebp
   294b9:	pop    esi; 	pop    edi; 	pop    ebp
   294b8:	pop    ebx; 	pop    esi; 	pop    edi; 	pop    ebp
   295f1:	pop    ebp
   295f0:	pop    edi; 	pop    ebp
   295ef:	pop    esi; 	pop    edi; 	pop    ebp
   295ee:	pop    ebx; 	pop    esi; 	pop    edi; 	pop    ebp
